; Function Attrs: mustprogress nofree norecurse nosync nounwind willreturn memory(read, inaccessiblemem: none) uwtable
define hidden zeroext i16 @ssl3_version_from_wire(ptr noundef readonly captures(none) %0, i16 noundef zeroext %1) local_unnamed_addr #10 {
  %3 = getelementptr inbounds nuw i8, ptr %0, i64 8
  %4 = load ptr, ptr %3, align 8, !tbaa !106
  %5 = load i8, ptr %4, align 8, !tbaa !174
  %.not = icmp eq i8 %5, 0
  br i1 %.not, label %21, label %6

6:                                                ; preds = %2
  %7 = xor i16 %1, -1
  %8 = zext i16 %7 to i32
  %9 = sub i16 512, %1
  %10 = lshr i16 %9, 8
  %11 = zext nneg i16 %10 to i32
  %12 = lshr i32 %8, 8
  %13 = icmp samesign ugt i32 %12, %11
  %14 = or i16 %9, -256
  %spec.select = select i1 %13, i16 %14, i16 %9
  %15 = and i16 %spec.select, 255
  %16 = zext nneg i16 %15 to i32
  %17 = and i32 %8, 255
  %18 = icmp samesign ugt i32 %17, %16
  %19 = or i16 %spec.select, 255
  %.1 = select i1 %18, i16 %19, i16 %spec.select
  %20 = icmp eq i16 %.1, 769
  %spec.store.select = select i1 %20, i16 770, i16 %.1
  br label %21

21:                                               ; preds = %2, %6
  %.012 = phi i16 [ %spec.store.select, %6 ], [ %1, %2 ]
  ret i16 %.012
}